target datalayout = "e-m:e-p270:32:32-p271:32:32-p272:64:64-i64:64-i128:128-f80:128-n8:16:32:64-S128"
target triple = "x86_64-pc-linux-gnu"

%struct._object = type { %union.anon, ptr }
%union.anon = type { i64 }

@PyExc_ValueError = external global ptr, align 8
@.str.9 = private unnamed_addr constant [24 x i8] c"embedded null character\00", align 1
@PyExc_OSError = external global ptr, align 8
@PyExc_TypeError = external global ptr, align 8
@.str.10 = private unnamed_addr constant [42 x i8] c"shm_unlink() argument must be str, not %T\00", align 1

; Function Attrs: nounwind uwtable
define internal ptr @_posixshmem_shm_unlink_impl(ptr noundef %0, ptr noundef %1) #0 {
  %3 = alloca ptr, align 8
  %4 = alloca ptr, align 8
  %5 = alloca ptr, align 8
  %6 = alloca i32, align 4
  %7 = alloca i32, align 4
  %8 = alloca i64, align 8
  %9 = alloca ptr, align 8
  %10 = alloca i32, align 4
  %11 = alloca ptr, align 8
  store ptr %0, ptr %4, align 8, !tbaa !3
  store ptr %1, ptr %5, align 8, !tbaa !3
  call void @llvm.lifetime.start.p0(i64 4, ptr %6) #6
  call void @llvm.lifetime.start.p0(i64 4, ptr %7) #6
  store i32 0, ptr %7, align 4, !tbaa !8
  call void @llvm.lifetime.start.p0(i64 8, ptr %8) #6
  call void @llvm.lifetime.start.p0(i64 8, ptr %9) #6
  %12 = load ptr, ptr %5, align 8, !tbaa !3
  %13 = call ptr @PyUnicode_AsUTF8AndSize(ptr noundef %12, ptr noundef %8)
  store ptr %13, ptr %9, align 8, !tbaa !10
  %14 = load ptr, ptr %9, align 8, !tbaa !10
  %15 = icmp eq ptr %14, null
  br i1 %15, label %16, label %17

16:                                               ; preds = %2
  store ptr null, ptr %3, align 8
  store i32 1, ptr %10, align 4
  br label %56

17:                                               ; preds = %2
  %18 = load ptr, ptr %9, align 8, !tbaa !10
  %19 = call i64 @strlen(ptr noundef %18) #7
  %20 = load i64, ptr %8, align 8, !tbaa !12
  %21 = icmp ne i64 %19, %20
  br i1 %21, label %22, label %24

22:                                               ; preds = %17
  %23 = load ptr, ptr @PyExc_ValueError, align 8, !tbaa !3
  call void @PyErr_SetString(ptr noundef %23, ptr noundef @.str.9)
  store ptr null, ptr %3, align 8
  store i32 1, ptr %10, align 4
  br label %56

24:                                               ; preds = %17
  br label %25

25:                                               ; preds = %41, %24
  call void @llvm.lifetime.start.p0(i64 8, ptr %11) #6
  %26 = call ptr @PyEval_SaveThread()
  store ptr %26, ptr %11, align 8, !tbaa !14
  %27 = load ptr, ptr %9, align 8, !tbaa !10
  %28 = call i32 @shm_unlink(ptr noundef %27)
  store i32 %28, ptr %6, align 4, !tbaa !8
  %29 = load ptr, ptr %11, align 8, !tbaa !14
  call void @PyEval_RestoreThread(ptr noundef %29)
  call void @llvm.lifetime.end.p0(i64 8, ptr %11) #6
  br label %30

30:                                               ; preds = %25
  %31 = load i32, ptr %6, align 4, !tbaa !8
  %32 = icmp slt i32 %31, 0
  br i1 %32, label %33, label %41

33:                                               ; preds = %30
  %34 = call ptr @__errno_location() #8
  %35 = load i32, ptr %34, align 4, !tbaa !8
  %36 = icmp eq i32 %35, 4
  br i1 %36, label %37, label %41

37:                                               ; preds = %33
  %38 = call i32 @PyErr_CheckSignals()
  store i32 %38, ptr %7, align 4, !tbaa !8
  %39 = icmp ne i32 %38, 0
  %40 = xor i1 %39, true
  br label %41

41:                                               ; preds = %37, %33, %30
  %42 = phi i1 [ false, %33 ], [ false, %30 ], [ %40, %37 ]
  br i1 %42, label %25, label %43, !llvm.loop !22

43:                                               ; preds = %41
  %44 = load i32, ptr %6, align 4, !tbaa !8
  %45 = icmp slt i32 %44, 0
  br i1 %45, label %46, label %54

46:                                               ; preds = %43
  %47 = load i32, ptr %7, align 4, !tbaa !8
  %48 = icmp ne i32 %47, 0
  br i1 %48, label %53, label %49

49:                                               ; preds = %46
  %50 = load ptr, ptr @PyExc_OSError, align 8, !tbaa !3
  %51 = load ptr, ptr %5, align 8, !tbaa !3
  %52 = call ptr @PyErr_SetFromErrnoWithFilenameObject(ptr noundef %50, ptr noundef %51)
  br label %53

53:                                               ; preds = %49, %46
  store ptr null, ptr %3, align 8
  store i32 1, ptr %10, align 4
  br label %56

54:                                               ; preds = %43
  %55 = call ptr @Py_GetConstantBorrowed(i32 noundef 0)
  store ptr %55, ptr %3, align 8
  store i32 1, ptr %10, align 4
  br label %56

56:                                               ; preds = %54, %53, %22, %16
  call void @llvm.lifetime.end.p0(i64 8, ptr %9) #6
  call void @llvm.lifetime.end.p0(i64 8, ptr %8) #6
  call void @llvm.lifetime.end.p0(i64 4, ptr %7) #6
  call void @llvm.lifetime.end.p0(i64 4, ptr %6) #6
  %57 = load ptr, ptr %3, align 8
  ret ptr %57
}

; Function Attrs: inlinehint nounwind uwtable
define internal i32 @PyType_HasFeature(ptr noundef %0, i64 noundef %1) #5 {
  %3 = alloca ptr, align 8
  %4 = alloca i64, align 8
  %5 = alloca i64, align 8
  store ptr %0, ptr %3, align 8, !tbaa !18
  store i64 %1, ptr %4, align 8, !tbaa !12
  call void @llvm.lifetime.start.p0(i64 8, ptr %5) #6
  %6 = load ptr, ptr %3, align 8, !tbaa !18
  %7 = call i64 @PyType_GetFlags(ptr noundef %6)
  store i64 %7, ptr %5, align 8, !tbaa !12
  %8 = load i64, ptr %5, align 8, !tbaa !12
  %9 = load i64, ptr %4, align 8, !tbaa !12
  %10 = and i64 %8, %9
  %11 = icmp ne i64 %10, 0
  %12 = zext i1 %11 to i32
  call void @llvm.lifetime.end.p0(i64 8, ptr %5) #6
  ret i32 %12
}

; Function Attrs: inlinehint nounwind uwtable
define internal ptr @_Py_TYPE(ptr noundef %0) #5 {
  %2 = alloca ptr, align 8
  store ptr %0, ptr %2, align 8, !tbaa !3
  %3 = load ptr, ptr %2, align 8, !tbaa !3
  %4 = getelementptr inbounds nuw %struct._object, ptr %3, i32 0, i32 1
  %5 = load ptr, ptr %4, align 8, !tbaa !20
  ret ptr %5
}

; Function Attrs: nounwind uwtable
define internal ptr @_posixshmem_shm_unlink(ptr noundef %0, ptr noundef %1) #0 {
  %3 = alloca ptr, align 8
  %4 = alloca ptr, align 8
  %5 = alloca ptr, align 8
  %6 = alloca ptr, align 8
  store ptr %0, ptr %3, align 8, !tbaa !3
  store ptr %1, ptr %4, align 8, !tbaa !3
  call void @llvm.lifetime.start.p0(i64 8, ptr %5) #6
  store ptr null, ptr %5, align 8, !tbaa !3
  call void @llvm.lifetime.start.p0(i64 8, ptr %6) #6
  %7 = load ptr, ptr %4, align 8, !tbaa !3
  %8 = call ptr @_Py_TYPE(ptr noundef %7)
  %9 = call i32 @PyType_HasFeature(ptr noundef %8, i64 noundef 268435456)
  %10 = icmp ne i32 %9, 0
  br i1 %10, label %15, label %11

11:                                               ; preds = %2
  %12 = load ptr, ptr @PyExc_TypeError, align 8, !tbaa !3
  %13 = load ptr, ptr %4, align 8, !tbaa !3
  %14 = call ptr (ptr, ptr, ...) @PyErr_Format(ptr noundef %12, ptr noundef @.str.10, ptr noundef %13)
  br label %20

15:                                               ; preds = %2
  %16 = load ptr, ptr %4, align 8, !tbaa !3
  store ptr %16, ptr %6, align 8, !tbaa !3
  %17 = load ptr, ptr %3, align 8, !tbaa !3
  %18 = load ptr, ptr %6, align 8, !tbaa !3
  %19 = call ptr @_posixshmem_shm_unlink_impl(ptr noundef %17, ptr noundef %18)
  store ptr %19, ptr %5, align 8, !tbaa !3
  br label %20

20:                                               ; preds = %15, %11
  %21 = load ptr, ptr %5, align 8, !tbaa !3
  call void @llvm.lifetime.end.p0(i64 8, ptr %6) #6
  call void @llvm.lifetime.end.p0(i64 8, ptr %5) #6
  ret ptr %21
}