; Function Attrs: nounwind uwtable
define internal ptr @_posixshmem_shm_unlink(ptr readnone captures(none) %0, ptr noundef %1) #0 {
  %3 = alloca i64, align 8
  %4 = getelementptr i8, ptr %1, i64 8
  %.val = load ptr, ptr %4, align 8, !tbaa !14
  %5 = tail call i64 @PyType_GetFlags(ptr noundef %.val) #5
  %6 = and i64 %5, 268435456
  %.not = icmp eq i64 %6, 0
  br i1 %.not, label %7, label %10

7:                                                ; preds = %2
  %8 = load ptr, ptr @PyExc_TypeError, align 8, !tbaa !7
  %9 = tail call ptr (ptr, ptr, ...) @PyErr_Format(ptr noundef %8, ptr noundef nonnull @.str.10, ptr noundef nonnull %1) #5
  br label %31

10:                                               ; preds = %2
  call void @llvm.lifetime.start.p0(i64 8, ptr nonnull %3) #5
  %11 = call ptr @PyUnicode_AsUTF8AndSize(ptr noundef nonnull %1, ptr noundef nonnull %3) #5
  %12 = icmp eq ptr %11, null
  br i1 %12, label %_posixshmem_shm_unlink_impl.exit, label %13

13:                                               ; preds = %10
  %14 = call i64 @strlen(ptr noundef nonnull dereferenceable(1) %11) #6
  %15 = load i64, ptr %3, align 8, !tbaa !10
  %.not.i = icmp eq i64 %14, %15
  br i1 %.not.i, label %.preheader.i, label %16

16:                                               ; preds = %13
  %17 = load ptr, ptr @PyExc_ValueError, align 8, !tbaa !7
  call void @PyErr_SetString(ptr noundef %17, ptr noundef nonnull @.str.9) #5
  br label %_posixshmem_shm_unlink_impl.exit

.preheader.i:                                     ; preds = %13, %25
  %18 = call ptr @PyEval_SaveThread() #5
  %19 = call i32 @shm_unlink(ptr noundef nonnull %11) #5
  call void @PyEval_RestoreThread(ptr noundef %18) #5
  %20 = icmp slt i32 %19, 0
  br i1 %20, label %21, label %.critedge.i

21:                                               ; preds = %.preheader.i
  %22 = tail call ptr @__errno_location() #7
  %23 = load i32, ptr %22, align 4, !tbaa !3
  %24 = icmp eq i32 %23, 4
  br i1 %24, label %25, label %27

25:                                               ; preds = %21
  %26 = call i32 @PyErr_CheckSignals() #5
  %.not11.i = icmp eq i32 %26, 0
  br i1 %.not11.i, label %.preheader.i, label %_posixshmem_shm_unlink_impl.exit, !llvm.loop !17

27:                                               ; preds = %21
  %28 = load ptr, ptr @PyExc_OSError, align 8, !tbaa !7
  %29 = call ptr @PyErr_SetFromErrnoWithFilenameObject(ptr noundef %28, ptr noundef nonnull %1) #5
  br label %_posixshmem_shm_unlink_impl.exit

.critedge.i:                                      ; preds = %.preheader.i
  %30 = call ptr @Py_GetConstantBorrowed(i32 noundef 0) #5
  br label %_posixshmem_shm_unlink_impl.exit

_posixshmem_shm_unlink_impl.exit:                 ; preds = %25, %10, %16, %27, %.critedge.i
  %.0.i = phi ptr [ null, %16 ], [ %30, %.critedge.i ], [ null, %10 ], [ null, %27 ], [ null, %25 ]
  call void @llvm.lifetime.end.p0(i64 8, ptr nonnull %3) #5
  br label %31

31:                                               ; preds = %_posixshmem_shm_unlink_impl.exit, %7
  %.0 = phi ptr [ %.0.i, %_posixshmem_shm_unlink_impl.exit ], [ null, %7 ]
  ret ptr %.0
}